Certificate:
    Data:
        Version: 3 (0x2)
        Serial Number: 4097 (0x1001)
        Signature Algorithm: ecdsa-with-SHA256
        Issuer: C=FR, ST=France, L=Limoges, O=Certiplus, OU=CA-Certiplus, CN=CA root de Certiplus/emailAddress=jean.de-bonfils@etu.unilim.fr
        Validity
            Not Before: Apr 13 16:24:57 2021 GMT
            Not After : Apr 13 16:24:57 2022 GMT
        Subject: C=FR, O=Certiplus, OU=TSA Certifplus, CN=TSA Certifplus
        Subject Public Key Info:
            Public Key Algorithm: rsaEncryption
                RSA Public-Key: (2048 bit)
                Modulus:
                    00:c2:98:7b:3b:eb:ab:8a:80:68:12:dc:7b:fd:6a:
                    01:ec:f4:4e:42:86:6a:63:b8:8d:d2:44:e2:42:44:
                    00:64:dd:37:d5:4f:31:24:cf:23:4a:47:2f:8b:22:
                    a6:95:c4:61:2b:d0:b1:10:60:73:b2:af:33:3f:6d:
                    a0:cd:58:1d:3a:38:e9:67:c6:82:86:c6:4c:4b:12:
                    a4:cc:de:38:e4:84:fb:5a:21:c5:7b:5c:3b:64:37:
                    a7:4d:0e:47:00:7b:6e:89:5c:28:7c:0a:17:44:31:
                    02:d9:26:78:d1:15:9a:2b:d1:40:7b:98:b9:ae:91:
                    9f:1c:d2:9d:c2:5f:12:5d:98:59:b1:63:5c:ad:1b:
                    19:c5:31:23:28:2c:c2:9b:85:e5:17:b7:33:25:dd:
                    64:a5:e9:ad:45:47:24:b0:4e:59:ba:93:b6:e7:db:
                    bc:6f:e8:1e:12:aa:b1:19:59:a2:ea:84:05:20:1f:
                    a5:05:ad:d8:a5:93:bd:50:7e:1f:31:34:2a:53:41:
                    89:e2:a7:2e:7c:45:48:0e:4d:1a:b5:c6:21:f4:c4:
                    0b:4b:34:0c:20:33:f8:29:c6:98:81:44:f7:3c:bc:
                    dd:4b:17:1c:df:7a:e3:86:96:5a:bf:c2:9d:a7:d4:
                    ba:58:86:9c:c1:70:d3:b2:61:19:d1:7f:b3:99:60:
                    9f:9b
                Exponent: 65537 (0x10001)
        X509v3 extensions:
            X509v3 Authority Key Identifier: 
                keyid:BC:F5:09:28:06:85:E8:F8:51:6C:B0:E3:90:09:CD:E1:1C:E8:5F:A0

            X509v3 Basic Constraints: critical
                CA:FALSE
            X509v3 Extended Key Usage: critical
                Time Stamping
            X509v3 Key Usage: critical
                Non Repudiation
            X509v3 Subject Key Identifier: 
                1F:AE:64:1B:B0:B1:DD:64:81:C9:88:D6:F8:28:A9:60:19:87:F8:C1
    Signature Algorithm: ecdsa-with-SHA256
         30:46:02:21:00:d6:e8:51:5a:5e:ff:40:86:19:32:f4:62:89:
         af:bc:ff:83:aa:e7:47:54:03:13:c3:ad:56:f9:f3:cf:f1:5f:
         32:02:21:00:b5:81:fb:11:22:b4:fe:7e:a1:96:04:9d:58:24:
         63:cc:5a:9c:38:17:e2:8b:2f:df:92:af:b3:0a:a3:3b:53:8d
-----BEGIN CERTIFICATE-----
MIIDMDCCAtWgAwIBAgICEAEwCgYIKoZIzj0EAwIwgagxCzAJBgNVBAYTAkZSMQ8w
DQYDVQQIDAZGcmFuY2UxEDAOBgNVBAcMB0xpbW9nZXMxEjAQBgNVBAoMCUNlcnRp
cGx1czEVMBMGA1UECwwMQ0EtQ2VydGlwbHVzMR0wGwYDVQQDDBRDQSByb290IGRl
IENlcnRpcGx1czEsMCoGCSqGSIb3DQEJARYdamVhbi5kZS1ib25maWxzQGV0dS51
bmlsaW0uZnIwHhcNMjEwNDEzMTYyNDU3WhcNMjIwNDEzMTYyNDU3WjBTMQswCQYD
VQQGEwJGUjESMBAGA1UECgwJQ2VydGlwbHVzMRcwFQYDVQQLDA5UU0EgQ2VydGlm
cGx1czEXMBUGA1UEAwwOVFNBIENlcnRpZnBsdXMwggEiMA0GCSqGSIb3DQEBAQUA
A4IBDwAwggEKAoIBAQDCmHs766uKgGgS3Hv9agHs9E5ChmpjuI3SROJCRABk3TfV
TzEkzyNKRy+LIqaVxGEr0LEQYHOyrzM/baDNWB06OOlnxoKGxkxLEqTM3jjkhPta
IcV7XDtkN6dNDkcAe26JXCh8ChdEMQLZJnjRFZor0UB7mLmukZ8c0p3CXxJdmFmx
Y1ytGxnFMSMoLMKbheUXtzMl3WSl6a1FRySwTlm6k7bn27xv6B4SqrEZWaLqhAUg
H6UFrdilk71Qfh8xNCpTQYnipy58RUgOTRq1xiH0xAtLNAwgM/gpxpiBRPc8vN1L
FxzfeuOGllq/wp2n1LpYhpzBcNOyYRnRf7OZYJ+bAgMBAAGjeDB2MB8GA1UdIwQY
MBaAFLz1CSgGhej4UWyw45AJzeEc6F+gMAwGA1UdEwEB/wQCMAAwFgYDVR0lAQH/
BAwwCgYIKwYBBQUHAwgwDgYDVR0PAQH/BAQDAgZAMB0GA1UdDgQWBBQfrmQbsLHd
ZIHJiNb4KKlgGYf4wTAKBggqhkjOPQQDAgNJADBGAiEA1uhRWl7/QIYZMvRiia+8
/4Oq50dUAxPDrVb588/xXzICIQC1gfsRIrT+fqGWBJ1YJGPMWpw4F+KLL9+Sr7MK
oztTjQ==
-----END CERTIFICATE-----
-----BEGIN CERTIFICATE-----
MIICtzCCAl2gAwIBAgIUeJRYfLkLB9aao86556imotW3urIwCgYIKoZIzj0EAwIw
gagxCzAJBgNVBAYTAkZSMQ8wDQYDVQQIDAZGcmFuY2UxEDAOBgNVBAcMB0xpbW9n
ZXMxEjAQBgNVBAoMCUNlcnRpcGx1czEVMBMGA1UECwwMQ0EtQ2VydGlwbHVzMR0w
GwYDVQQDDBRDQSByb290IGRlIENlcnRpcGx1czEsMCoGCSqGSIb3DQEJARYdamVh
bi5kZS1ib25maWxzQGV0dS51bmlsaW0uZnIwHhcNMjEwNDA2MTU1NjI3WhcNNDEw
NDAxMTU1NjI3WjCBqDELMAkGA1UEBhMCRlIxDzANBgNVBAgMBkZyYW5jZTEQMA4G
A1UEBwwHTGltb2dlczESMBAGA1UECgwJQ2VydGlwbHVzMRUwEwYDVQQLDAxDQS1D
ZXJ0aXBsdXMxHTAbBgNVBAMMFENBIHJvb3QgZGUgQ2VydGlwbHVzMSwwKgYJKoZI
hvcNAQkBFh1qZWFuLmRlLWJvbmZpbHNAZXR1LnVuaWxpbS5mcjBZMBMGByqGSM49
AgEGCCqGSM49AwEHA0IABPfXYgWKY69dcUr3HfDccH0Z4sUOrLSIMHpqUKTOlH3n
2UH5XiLM9CtLG9b8VbZg0hnapcf64QlCGhLhRpGMo3CjYzBhMB0GA1UdDgQWBBS8
9QkoBoXo+FFssOOQCc3hHOhfoDAfBgNVHSMEGDAWgBS89QkoBoXo+FFssOOQCc3h
HOhfoDAPBgNVHRMBAf8EBTADAQH/MA4GA1UdDwEB/wQEAwIBhjAKBggqhkjOPQQD
AgNIADBFAiARXCzw2tMCxZlZ2RlJEh60qQisql36q/RgKrsotis34AIhANYdFlJx
0Qr90xwb7n6DifYGP0OKYtWYCDHnB+pxM8eH
-----END CERTIFICATE-----
